target datalayout = "e-m:e-p270:32:32-p271:32:32-p272:64:64-i64:64-i128:128-f80:128-n8:16:32:64-S128"
target triple = "x86_64-pc-linux-gnu"

%struct._exr_context_initializer_v3 = type { i64, ptr, ptr, ptr, ptr, ptr, ptr, ptr, ptr, i32, i32, i32, i32, i32, float, i32, [4 x i8] }

; Function Attrs: nounwind uwtable
define hidden void @internal_exr_update_default_handlers(ptr noundef %0) #0 {
  %2 = alloca ptr, align 8
  store ptr %0, ptr %2, align 8, !tbaa !63
  %3 = load ptr, ptr %2, align 8, !tbaa !63
  %4 = getelementptr inbounds nuw %struct._exr_context_initializer_v3, ptr %3, i32 0, i32 1
  %5 = load ptr, ptr %4, align 8, !tbaa !73
  %6 = icmp ne ptr %5, null
  br i1 %6, label %10, label %7

7:                                                ; preds = %1
  %8 = load ptr, ptr %2, align 8, !tbaa !63
  %9 = getelementptr inbounds nuw %struct._exr_context_initializer_v3, ptr %8, i32 0, i32 1
  store ptr @default_error_handler, ptr %9, align 8, !tbaa !73
  br label %10

10:                                               ; preds = %7, %1
  %11 = load ptr, ptr %2, align 8, !tbaa !63
  %12 = getelementptr inbounds nuw %struct._exr_context_initializer_v3, ptr %11, i32 0, i32 2
  %13 = load ptr, ptr %12, align 8, !tbaa !68
  %14 = icmp ne ptr %13, null
  br i1 %14, label %18, label %15

15:                                               ; preds = %10
  %16 = load ptr, ptr %2, align 8, !tbaa !63
  %17 = getelementptr inbounds nuw %struct._exr_context_initializer_v3, ptr %16, i32 0, i32 2
  store ptr @internal_exr_alloc, ptr %17, align 8, !tbaa !68
  br label %18

18:                                               ; preds = %15, %10
  %19 = load ptr, ptr %2, align 8, !tbaa !63
  %20 = getelementptr inbounds nuw %struct._exr_context_initializer_v3, ptr %19, i32 0, i32 3
  %21 = load ptr, ptr %20, align 8, !tbaa !74
  %22 = icmp ne ptr %21, null
  br i1 %22, label %26, label %23

23:                                               ; preds = %18
  %24 = load ptr, ptr %2, align 8, !tbaa !63
  %25 = getelementptr inbounds nuw %struct._exr_context_initializer_v3, ptr %24, i32 0, i32 3
  store ptr @internal_exr_free, ptr %25, align 8, !tbaa !74
  br label %26

26:                                               ; preds = %23, %18
  ret void
}