; Function Attrs: mustprogress nofree norecurse nosync nounwind willreturn memory(argmem: readwrite) uwtable
define hidden void @internal_exr_update_default_handlers(ptr noundef captures(none) %0) local_unnamed_addr #7 {
  %2 = getelementptr inbounds nuw i8, ptr %0, i64 8
  %3 = load ptr, ptr %2, align 8, !tbaa !65
  %.not = icmp eq ptr %3, null
  br i1 %.not, label %4, label %5

4:                                                ; preds = %1
  store ptr @default_error_handler, ptr %2, align 8, !tbaa !65
  br label %5

5:                                                ; preds = %4, %1
  %6 = getelementptr inbounds nuw i8, ptr %0, i64 16
  %7 = load ptr, ptr %6, align 8, !tbaa !60
  %.not6 = icmp eq ptr %7, null
  br i1 %.not6, label %8, label %9

8:                                                ; preds = %5
  store ptr @internal_exr_alloc, ptr %6, align 8, !tbaa !60
  br label %9

9:                                                ; preds = %8, %5
  %10 = getelementptr inbounds nuw i8, ptr %0, i64 24
  %11 = load ptr, ptr %10, align 8, !tbaa !66
  %.not7 = icmp eq ptr %11, null
  br i1 %.not7, label %12, label %13

12:                                               ; preds = %9
  store ptr @internal_exr_free, ptr %10, align 8, !tbaa !66
  br label %13

13:                                               ; preds = %12, %9
  ret void
}